target datalayout = "e-m:e-p270:32:32-p271:32:32-p272:64:64-i64:64-i128:128-f80:128-n8:16:32:64-S128"
target triple = "x86_64-pc-linux-gnu"

%struct._object = type { %union.anon, ptr }
%union.anon = type { i64 }
%struct.anon = type { i32, i32 }
%struct.Parser = type { ptr, ptr, i32, i32, i32, ptr, ptr, ptr, i32, i32, ptr, i32, ptr, i32, i32, i32, i32, i32, %struct.growable_comment_array, ptr, i32, i32, i32 }
%struct.growable_comment_array = type { ptr, i64, i64 }
%struct.tok_state = type { ptr, ptr, ptr, i32, ptr, ptr, ptr, ptr, i32, ptr, i32, i32, [100 x i32], i32, i32, ptr, ptr, i32, i32, i32, i32, i32, [200 x i8], [200 x i32], [200 x i32], ptr, [100 x i32], i32, i32, ptr, i32, ptr, ptr, ptr, ptr, ptr, ptr, ptr, ptr, i32, i32, ptr, i32, [150 x %struct._tokenizer_mode], i32, i32, i32, i32 }
%struct._tokenizer_mode = type { i32, i32, i32, i8, i32, i32, ptr, ptr, i32, i64, i64, i64, i64, ptr, i32, i32 }
%struct.Token = type { i32, ptr, i32, i32, i32, i32, i32, ptr, ptr }
%struct.token = type { i32, i32, i32, i32, i32, ptr, ptr, ptr }

@PyExc_SyntaxError = external global ptr, align 8
@.str.20 = private unnamed_addr constant [22 x i8] c"'%c' was never closed\00", align 1

; Function Attrs: alwaysinline nounwind uwtable
define internal i32 @_Py_IsImmortal(ptr noundef %0) #3 {
  %2 = alloca ptr, align 8
  store ptr %0, ptr %2, align 8, !tbaa !4
  %3 = load ptr, ptr %2, align 8, !tbaa !4
  %4 = getelementptr inbounds nuw %struct._object, ptr %3, i32 0, i32 0
  %5 = getelementptr inbounds nuw %struct.anon, ptr %4, i32 0, i32 0
  %6 = load i32, ptr %5, align 8, !tbaa !9
  %7 = icmp slt i32 %6, 0
  %8 = zext i1 %7 to i32
  ret i32 %8
}

; Function Attrs: alwaysinline nounwind uwtable
define internal void @Py_DECREF(ptr noundef %0) #3 {
  %2 = alloca ptr, align 8
  store ptr %0, ptr %2, align 8, !tbaa !4
  %3 = load ptr, ptr %2, align 8, !tbaa !4
  %4 = call i32 @_Py_IsImmortal(ptr noundef %3)
  %5 = icmp ne i32 %4, 0
  br i1 %5, label %6, label %7

6:                                                ; preds = %1
  br label %16

7:                                                ; preds = %1
  %8 = load ptr, ptr %2, align 8, !tbaa !4
  %9 = getelementptr inbounds nuw %struct._object, ptr %8, i32 0, i32 0
  %10 = getelementptr inbounds nuw %struct.anon, ptr %9, i32 0, i32 0
  %11 = load i32, ptr %10, align 8, !tbaa !9
  %12 = add i32 %11, -1
  store i32 %12, ptr %10, align 8, !tbaa !9
  %13 = icmp eq i32 %12, 0
  br i1 %13, label %14, label %16

14:                                               ; preds = %7
  %15 = load ptr, ptr %2, align 8, !tbaa !4
  call void @_Py_Dealloc(ptr noundef %15)
  br label %16

16:                                               ; preds = %6, %14, %7
  ret void
}

; Function Attrs: inlinehint nounwind uwtable
define internal void @Py_XDECREF(ptr noundef %0) #4 {
  %2 = alloca ptr, align 8
  store ptr %0, ptr %2, align 8, !tbaa !4
  %3 = load ptr, ptr %2, align 8, !tbaa !4
  %4 = icmp ne ptr %3, null
  br i1 %4, label %5, label %7

5:                                                ; preds = %1
  %6 = load ptr, ptr %2, align 8, !tbaa !4
  call void @Py_DECREF(ptr noundef %6)
  br label %7

7:                                                ; preds = %5, %1
  ret void
}

; Function Attrs: inlinehint nounwind uwtable
define internal void @raise_unclosed_parentheses_error(ptr noundef %0) #4 {
  %2 = alloca ptr, align 8
  %3 = alloca i32, align 4
  %4 = alloca i32, align 4
  store ptr %0, ptr %2, align 8, !tbaa !10
  call void @llvm.lifetime.start.p0(i64 4, ptr %3) #7
  %5 = load ptr, ptr %2, align 8, !tbaa !10
  %6 = getelementptr inbounds nuw %struct.Parser, ptr %5, i32 0, i32 0
  %7 = load ptr, ptr %6, align 8, !tbaa !23
  %8 = getelementptr inbounds nuw %struct.tok_state, ptr %7, i32 0, i32 23
  %9 = load ptr, ptr %2, align 8, !tbaa !10
  %10 = getelementptr inbounds nuw %struct.Parser, ptr %9, i32 0, i32 0
  %11 = load ptr, ptr %10, align 8, !tbaa !23
  %12 = getelementptr inbounds nuw %struct.tok_state, ptr %11, i32 0, i32 21
  %13 = load i32, ptr %12, align 8, !tbaa !27
  %14 = sub i32 %13, 1
  %15 = sext i32 %14 to i64
  %16 = getelementptr [200 x i32], ptr %8, i64 0, i64 %15
  %17 = load i32, ptr %16, align 4, !tbaa !31
  store i32 %17, ptr %3, align 4, !tbaa !31
  call void @llvm.lifetime.start.p0(i64 4, ptr %4) #7
  %18 = load ptr, ptr %2, align 8, !tbaa !10
  %19 = getelementptr inbounds nuw %struct.Parser, ptr %18, i32 0, i32 0
  %20 = load ptr, ptr %19, align 8, !tbaa !23
  %21 = getelementptr inbounds nuw %struct.tok_state, ptr %20, i32 0, i32 24
  %22 = load ptr, ptr %2, align 8, !tbaa !10
  %23 = getelementptr inbounds nuw %struct.Parser, ptr %22, i32 0, i32 0
  %24 = load ptr, ptr %23, align 8, !tbaa !23
  %25 = getelementptr inbounds nuw %struct.tok_state, ptr %24, i32 0, i32 21
  %26 = load i32, ptr %25, align 8, !tbaa !27
  %27 = sub i32 %26, 1
  %28 = sext i32 %27 to i64
  %29 = getelementptr [200 x i32], ptr %21, i64 0, i64 %28
  %30 = load i32, ptr %29, align 4, !tbaa !31
  store i32 %30, ptr %4, align 4, !tbaa !31
  %31 = load ptr, ptr %2, align 8, !tbaa !10
  %32 = load ptr, ptr @PyExc_SyntaxError, align 8, !tbaa !4
  %33 = load i32, ptr %3, align 4, !tbaa !31
  %34 = sext i32 %33 to i64
  %35 = load i32, ptr %4, align 4, !tbaa !31
  %36 = sext i32 %35 to i64
  %37 = load i32, ptr %3, align 4, !tbaa !31
  %38 = sext i32 %37 to i64
  %39 = load ptr, ptr %2, align 8, !tbaa !10
  %40 = getelementptr inbounds nuw %struct.Parser, ptr %39, i32 0, i32 0
  %41 = load ptr, ptr %40, align 8, !tbaa !23
  %42 = getelementptr inbounds nuw %struct.tok_state, ptr %41, i32 0, i32 22
  %43 = load ptr, ptr %2, align 8, !tbaa !10
  %44 = getelementptr inbounds nuw %struct.Parser, ptr %43, i32 0, i32 0
  %45 = load ptr, ptr %44, align 8, !tbaa !23
  %46 = getelementptr inbounds nuw %struct.tok_state, ptr %45, i32 0, i32 21
  %47 = load i32, ptr %46, align 8, !tbaa !27
  %48 = sub i32 %47, 1
  %49 = sext i32 %48 to i64
  %50 = getelementptr [200 x i8], ptr %42, i64 0, i64 %49
  %51 = load i8, ptr %50, align 1, !tbaa !9
  %52 = sext i8 %51 to i32
  %53 = call ptr (ptr, ptr, i64, i64, i64, i64, ptr, ...) @RAISE_ERROR_KNOWN_LOCATION(ptr noundef %31, ptr noundef %32, i64 noundef %34, i64 noundef %36, i64 noundef %38, i64 noundef -1, ptr noundef @.str.20, i32 noundef %52)
  call void @llvm.lifetime.end.p0(i64 4, ptr %4) #7
  call void @llvm.lifetime.end.p0(i64 4, ptr %3) #7
  ret void
}

; Function Attrs: nounwind uwtable
define internal i32 @_PyPegen_tokenize_full_source_to_check_for_errors(ptr noundef %0) #0 {
  %2 = alloca i32, align 4
  %3 = alloca ptr, align 8
  %4 = alloca ptr, align 8
  %5 = alloca ptr, align 8
  %6 = alloca ptr, align 8
  %7 = alloca ptr, align 8
  %8 = alloca i64, align 8
  %9 = alloca i32, align 4
  %10 = alloca %struct.token, align 8
  %11 = alloca i32, align 4
  %12 = alloca i32, align 4
  store ptr %0, ptr %3, align 8, !tbaa !10
  %13 = load ptr, ptr %3, align 8, !tbaa !10
  %14 = getelementptr inbounds nuw %struct.Parser, ptr %13, i32 0, i32 0
  %15 = load ptr, ptr %14, align 8, !tbaa !23
  %16 = getelementptr inbounds nuw %struct.tok_state, ptr %15, i32 0, i32 15
  %17 = load ptr, ptr %16, align 8, !tbaa !59
  %18 = icmp ne ptr %17, null
  br i1 %18, label %19, label %20

19:                                               ; preds = %1
  store i32 0, ptr %2, align 4
  br label %111

20:                                               ; preds = %1
  call void @llvm.lifetime.start.p0(i64 8, ptr %4) #7
  call void @llvm.lifetime.start.p0(i64 8, ptr %5) #7
  call void @llvm.lifetime.start.p0(i64 8, ptr %6) #7
  call void @PyErr_Fetch(ptr noundef %4, ptr noundef %5, ptr noundef %6)
  call void @llvm.lifetime.start.p0(i64 8, ptr %7) #7
  %21 = load ptr, ptr %3, align 8, !tbaa !10
  %22 = getelementptr inbounds nuw %struct.Parser, ptr %21, i32 0, i32 19
  %23 = load ptr, ptr %22, align 8, !tbaa !34
  %24 = icmp ne ptr %23, null
  br i1 %24, label %25, label %29

25:                                               ; preds = %20
  %26 = load ptr, ptr %3, align 8, !tbaa !10
  %27 = getelementptr inbounds nuw %struct.Parser, ptr %26, i32 0, i32 19
  %28 = load ptr, ptr %27, align 8, !tbaa !34
  br label %40

29:                                               ; preds = %20
  %30 = load ptr, ptr %3, align 8, !tbaa !10
  %31 = getelementptr inbounds nuw %struct.Parser, ptr %30, i32 0, i32 1
  %32 = load ptr, ptr %31, align 8, !tbaa !35
  %33 = load ptr, ptr %3, align 8, !tbaa !10
  %34 = getelementptr inbounds nuw %struct.Parser, ptr %33, i32 0, i32 3
  %35 = load i32, ptr %34, align 4, !tbaa !32
  %36 = sub i32 %35, 1
  %37 = sext i32 %36 to i64
  %38 = getelementptr ptr, ptr %32, i64 %37
  %39 = load ptr, ptr %38, align 8, !tbaa !10
  br label %40

40:                                               ; preds = %29, %25
  %41 = phi ptr [ %28, %25 ], [ %39, %29 ]
  store ptr %41, ptr %7, align 8, !tbaa !10
  call void @llvm.lifetime.start.p0(i64 8, ptr %8) #7
  %42 = load ptr, ptr %7, align 8, !tbaa !10
  %43 = getelementptr inbounds nuw %struct.Token, ptr %42, i32 0, i32 3
  %44 = load i32, ptr %43, align 4, !tbaa !41
  %45 = sext i32 %44 to i64
  store i64 %45, ptr %8, align 8, !tbaa !13
  call void @llvm.lifetime.start.p0(i64 4, ptr %9) #7
  store i32 0, ptr %9, align 4, !tbaa !31
  call void @llvm.lifetime.start.p0(i64 48, ptr %10) #7
  call void @_PyToken_Init(ptr noundef %10)
  br label %46

46:                                               ; preds = %87, %40
  %47 = load ptr, ptr %3, align 8, !tbaa !10
  %48 = getelementptr inbounds nuw %struct.Parser, ptr %47, i32 0, i32 0
  %49 = load ptr, ptr %48, align 8, !tbaa !23
  %50 = call i32 @_PyTokenizer_Get(ptr noundef %49, ptr noundef %10)
  switch i32 %50, label %87 [
    i32 64, label %51
    i32 0, label %88
  ]

51:                                               ; preds = %46
  %52 = call ptr @PyErr_Occurred()
  %53 = icmp ne ptr %52, null
  br i1 %53, label %54, label %55

54:                                               ; preds = %51
  store i32 -1, ptr %9, align 4, !tbaa !31
  br label %90

55:                                               ; preds = %51
  %56 = load ptr, ptr %3, align 8, !tbaa !10
  %57 = getelementptr inbounds nuw %struct.Parser, ptr %56, i32 0, i32 0
  %58 = load ptr, ptr %57, align 8, !tbaa !23
  %59 = getelementptr inbounds nuw %struct.tok_state, ptr %58, i32 0, i32 21
  %60 = load i32, ptr %59, align 8, !tbaa !27
  %61 = icmp ne i32 %60, 0
  br i1 %61, label %62, label %86

62:                                               ; preds = %55
  call void @llvm.lifetime.start.p0(i64 4, ptr %11) #7
  %63 = load ptr, ptr %3, align 8, !tbaa !10
  %64 = getelementptr inbounds nuw %struct.Parser, ptr %63, i32 0, i32 0
  %65 = load ptr, ptr %64, align 8, !tbaa !23
  %66 = getelementptr inbounds nuw %struct.tok_state, ptr %65, i32 0, i32 23
  %67 = load ptr, ptr %3, align 8, !tbaa !10
  %68 = getelementptr inbounds nuw %struct.Parser, ptr %67, i32 0, i32 0
  %69 = load ptr, ptr %68, align 8, !tbaa !23
  %70 = getelementptr inbounds nuw %struct.tok_state, ptr %69, i32 0, i32 21
  %71 = load i32, ptr %70, align 8, !tbaa !27
  %72 = sub i32 %71, 1
  %73 = sext i32 %72 to i64
  %74 = getelementptr [200 x i32], ptr %66, i64 0, i64 %73
  %75 = load i32, ptr %74, align 4, !tbaa !31
  store i32 %75, ptr %11, align 4, !tbaa !31
  %76 = load i64, ptr %8, align 8, !tbaa !13
  %77 = load i32, ptr %11, align 4, !tbaa !31
  %78 = sext i32 %77 to i64
  %79 = icmp sgt i64 %76, %78
  br i1 %79, label %80, label %82

80:                                               ; preds = %62
  %81 = load ptr, ptr %3, align 8, !tbaa !10
  call void @raise_unclosed_parentheses_error(ptr noundef %81)
  store i32 -1, ptr %9, align 4, !tbaa !31
  store i32 5, ptr %12, align 4
  br label %83

82:                                               ; preds = %62
  store i32 0, ptr %12, align 4
  br label %83

83:                                               ; preds = %80, %82
  call void @llvm.lifetime.end.p0(i64 4, ptr %11) #7
  %84 = load i32, ptr %12, align 4
  switch i32 %84, label %110 [
    i32 0, label %85
    i32 5, label %90
  ]

85:                                               ; preds = %83
  br label %86

86:                                               ; preds = %85, %55
  br label %88

87:                                               ; preds = %46
  br label %46

88:                                               ; preds = %46, %86
  br label %89

89:                                               ; preds = %88
  br label %90

90:                                               ; preds = %89, %83, %54
  call void @_PyToken_Free(ptr noundef %10)
  %91 = call ptr @PyErr_Occurred()
  %92 = icmp ne ptr %91, null
  br i1 %92, label %93, label %104

93:                                               ; preds = %90
  %94 = load ptr, ptr %3, align 8, !tbaa !10
  %95 = getelementptr inbounds nuw %struct.Parser, ptr %94, i32 0, i32 0
  %96 = load ptr, ptr %95, align 8, !tbaa !23
  %97 = getelementptr inbounds nuw %struct.tok_state, ptr %96, i32 0, i32 44
  %98 = load i32, ptr %97, align 8, !tbaa !60
  %99 = icmp sle i32 %98, 0
  br i1 %99, label %100, label %104

100:                                              ; preds = %93
  %101 = load ptr, ptr %5, align 8, !tbaa !4
  call void @Py_XDECREF(ptr noundef %101)
  %102 = load ptr, ptr %4, align 8, !tbaa !4
  call void @Py_XDECREF(ptr noundef %102)
  %103 = load ptr, ptr %6, align 8, !tbaa !4
  call void @Py_XDECREF(ptr noundef %103)
  br label %108

104:                                              ; preds = %93, %90
  %105 = load ptr, ptr %4, align 8, !tbaa !4
  %106 = load ptr, ptr %5, align 8, !tbaa !4
  %107 = load ptr, ptr %6, align 8, !tbaa !4
  call void @PyErr_Restore(ptr noundef %105, ptr noundef %106, ptr noundef %107)
  br label %108

108:                                              ; preds = %104, %100
  %109 = load i32, ptr %9, align 4, !tbaa !31
  store i32 %109, ptr %2, align 4
  store i32 1, ptr %12, align 4
  br label %110

110:                                              ; preds = %108, %83
  call void @llvm.lifetime.end.p0(i64 48, ptr %10) #7
  call void @llvm.lifetime.end.p0(i64 4, ptr %9) #7
  call void @llvm.lifetime.end.p0(i64 8, ptr %8) #7
  call void @llvm.lifetime.end.p0(i64 8, ptr %7) #7
  call void @llvm.lifetime.end.p0(i64 8, ptr %6) #7
  call void @llvm.lifetime.end.p0(i64 8, ptr %5) #7
  call void @llvm.lifetime.end.p0(i64 8, ptr %4) #7
  br label %111

111:                                              ; preds = %110, %19
  %112 = load i32, ptr %2, align 4
  ret i32 %112
}