; Function Attrs: nounwind uwtable
define internal fastcc void @_PyPegen_tokenize_full_source_to_check_for_errors(ptr noundef captures(none) %0) unnamed_addr #0 {
  %2 = alloca ptr, align 8
  %3 = alloca ptr, align 8
  %4 = alloca ptr, align 8
  %5 = alloca %struct.token, align 8
  %6 = load ptr, ptr %0, align 8, !tbaa !19
  %7 = getelementptr inbounds nuw i8, ptr %6, i64 496
  %8 = load ptr, ptr %7, align 8, !tbaa !53
  %.not = icmp eq ptr %8, null
  br i1 %.not, label %9, label %84

9:                                                ; preds = %1
  call void @llvm.lifetime.start.p0(i64 8, ptr nonnull %2) #7
  call void @llvm.lifetime.start.p0(i64 8, ptr nonnull %3) #7
  call void @llvm.lifetime.start.p0(i64 8, ptr nonnull %4) #7
  call void @PyErr_Fetch(ptr noundef nonnull %2, ptr noundef nonnull %3, ptr noundef nonnull %4) #7
  %10 = getelementptr inbounds nuw i8, ptr %0, i64 136
  %11 = load ptr, ptr %10, align 8, !tbaa !31
  %.not21 = icmp eq ptr %11, null
  br i1 %.not21, label %12, label %21

12:                                               ; preds = %9
  %13 = getelementptr inbounds nuw i8, ptr %0, i64 8
  %14 = load ptr, ptr %13, align 8, !tbaa !32
  %15 = getelementptr inbounds nuw i8, ptr %0, i64 20
  %16 = load i32, ptr %15, align 4, !tbaa !29
  %17 = add i32 %16, -1
  %18 = sext i32 %17 to i64
  %19 = getelementptr ptr, ptr %14, i64 %18
  %20 = load ptr, ptr %19, align 8, !tbaa !33
  br label %21

21:                                               ; preds = %9, %12
  %22 = phi ptr [ %20, %12 ], [ %11, %9 ]
  %23 = getelementptr inbounds nuw i8, ptr %22, i64 20
  %24 = load i32, ptr %23, align 4, !tbaa !39
  call void @llvm.lifetime.start.p0(i64 48, ptr nonnull %5) #7
  call void @_PyToken_Init(ptr noundef nonnull %5) #7
  br label %25

25:                                               ; preds = %25, %21
  %26 = load ptr, ptr %0, align 8, !tbaa !19
  %27 = call i32 @_PyTokenizer_Get(ptr noundef %26, ptr noundef nonnull %5) #7
  switch i32 %27, label %25 [
    i32 64, label %28
    i32 0, label %.loopexit
  ]

28:                                               ; preds = %25
  %29 = call ptr @PyErr_Occurred() #7
  %.not22 = icmp eq ptr %29, null
  br i1 %.not22, label %30, label %.loopexit

30:                                               ; preds = %28
  %31 = load ptr, ptr %0, align 8, !tbaa !19
  %32 = getelementptr inbounds nuw i8, ptr %31, i64 528
  %33 = load i32, ptr %32, align 8, !tbaa !24
  %.not23 = icmp eq i32 %33, 0
  br i1 %.not23, label %.loopexit, label %34

34:                                               ; preds = %30
  %35 = getelementptr inbounds nuw i8, ptr %31, i64 732
  %36 = add i32 %33, -1
  %37 = sext i32 %36 to i64
  %38 = getelementptr [200 x i32], ptr %35, i64 0, i64 %37
  %39 = load i32, ptr %38, align 4, !tbaa !25
  %40 = icmp sgt i32 %24, %39
  br i1 %40, label %41, label %.loopexit

41:                                               ; preds = %34
  %42 = getelementptr inbounds nuw i8, ptr %31, i64 1532
  %43 = getelementptr [200 x i32], ptr %42, i64 0, i64 %37
  %44 = load i32, ptr %43, align 4, !tbaa !25
  %45 = load ptr, ptr @PyExc_SyntaxError, align 8, !tbaa !4
  %46 = sext i32 %39 to i64
  %47 = sext i32 %44 to i64
  %48 = getelementptr inbounds nuw i8, ptr %31, i64 532
  %49 = getelementptr [200 x i8], ptr %48, i64 0, i64 %37
  %50 = load i8, ptr %49, align 1, !tbaa !9
  %51 = sext i8 %50 to i32
  call void (ptr, ptr, i64, i64, i64, i64, ptr, ...) @RAISE_ERROR_KNOWN_LOCATION(ptr noundef nonnull %0, ptr noundef %45, i64 noundef %46, i64 noundef %47, i64 noundef %46, i64 noundef -1, ptr noundef nonnull @.str.20, i32 noundef %51)
  br label %.loopexit

.loopexit:                                        ; preds = %25, %41, %34, %28, %30
  call void @_PyToken_Free(ptr noundef nonnull %5) #7
  %52 = call ptr @PyErr_Occurred() #7
  %.not24 = icmp eq ptr %52, null
  br i1 %.not24, label %80, label %53

53:                                               ; preds = %.loopexit
  %54 = load ptr, ptr %0, align 8, !tbaa !19
  %55 = getelementptr inbounds nuw i8, ptr %54, i64 17256
  %56 = load i32, ptr %55, align 8, !tbaa !54
  %57 = icmp slt i32 %56, 1
  br i1 %57, label %58, label %80

58:                                               ; preds = %53
  %59 = load ptr, ptr %3, align 8, !tbaa !4
  %.not.i = icmp eq ptr %59, null
  br i1 %.not.i, label %Py_XDECREF.exit, label %60

60:                                               ; preds = %58
  %61 = load i32, ptr %59, align 8, !tbaa !9
  %.not.i.i = icmp sgt i32 %61, -1
  br i1 %.not.i.i, label %62, label %Py_XDECREF.exit

62:                                               ; preds = %60
  %63 = add nsw i32 %61, -1
  store i32 %63, ptr %59, align 8, !tbaa !9
  %64 = icmp eq i32 %63, 0
  br i1 %64, label %65, label %Py_XDECREF.exit

65:                                               ; preds = %62
  call void @_Py_Dealloc(ptr noundef nonnull %59) #7
  br label %Py_XDECREF.exit

Py_XDECREF.exit:                                  ; preds = %58, %60, %62, %65
  %66 = load ptr, ptr %2, align 8, !tbaa !4
  %.not.i25 = icmp eq ptr %66, null
  br i1 %.not.i25, label %Py_XDECREF.exit27, label %67

67:                                               ; preds = %Py_XDECREF.exit
  %68 = load i32, ptr %66, align 8, !tbaa !9
  %.not.i.i26 = icmp sgt i32 %68, -1
  br i1 %.not.i.i26, label %69, label %Py_XDECREF.exit27

69:                                               ; preds = %67
  %70 = add nsw i32 %68, -1
  store i32 %70, ptr %66, align 8, !tbaa !9
  %71 = icmp eq i32 %70, 0
  br i1 %71, label %72, label %Py_XDECREF.exit27

72:                                               ; preds = %69
  call void @_Py_Dealloc(ptr noundef nonnull %66) #7
  br label %Py_XDECREF.exit27

Py_XDECREF.exit27:                                ; preds = %Py_XDECREF.exit, %67, %69, %72
  %73 = load ptr, ptr %4, align 8, !tbaa !4
  %.not.i28 = icmp eq ptr %73, null
  br i1 %.not.i28, label %Py_XDECREF.exit30, label %74

74:                                               ; preds = %Py_XDECREF.exit27
  %75 = load i32, ptr %73, align 8, !tbaa !9
  %.not.i.i29 = icmp sgt i32 %75, -1
  br i1 %.not.i.i29, label %76, label %Py_XDECREF.exit30

76:                                               ; preds = %74
  %77 = add nsw i32 %75, -1
  store i32 %77, ptr %73, align 8, !tbaa !9
  %78 = icmp eq i32 %77, 0
  br i1 %78, label %79, label %Py_XDECREF.exit30

79:                                               ; preds = %76
  call void @_Py_Dealloc(ptr noundef nonnull %73) #7
  br label %Py_XDECREF.exit30

80:                                               ; preds = %53, %.loopexit
  %81 = load ptr, ptr %2, align 8, !tbaa !4
  %82 = load ptr, ptr %3, align 8, !tbaa !4
  %83 = load ptr, ptr %4, align 8, !tbaa !4
  call void @PyErr_Restore(ptr noundef %81, ptr noundef %82, ptr noundef %83) #7
  br label %Py_XDECREF.exit30

Py_XDECREF.exit30:                                ; preds = %79, %76, %74, %Py_XDECREF.exit27, %80
  call void @llvm.lifetime.end.p0(i64 48, ptr nonnull %5) #7
  call void @llvm.lifetime.end.p0(i64 8, ptr nonnull %4) #7
  call void @llvm.lifetime.end.p0(i64 8, ptr nonnull %3) #7
  call void @llvm.lifetime.end.p0(i64 8, ptr nonnull %2) #7
  br label %84

84:                                               ; preds = %1, %Py_XDECREF.exit30
  ret void
}